target datalayout = "e-m:e-p270:32:32-p271:32:32-p272:64:64-i64:64-i128:128-f80:128-n8:16:32:64-S128"
target triple = "x86_64-pc-linux-gnu"

%struct.BEValue = type { i8, i32, ptr, ptr, ptr }
%union.SourceSpan = type { i64 }
%struct.Type_ = type { i32, ptr, ptr, ptr, %union.anon.97, ptr, ptr, %union.anon.99 }
%union.anon.97 = type { ptr }
%union.anon.99 = type { %struct.TypeFunction }
%struct.TypeFunction = type { ptr, ptr, ptr }
%struct.VHeader_ = type { i32, i32, [0 x i8] }
%struct.Decl_ = type { ptr, ptr, %union.SourceSpan, i64, %union.anon, i32, %union.anon.0, i64, ptr, ptr, ptr, %union.anon.1 }
%union.anon = type { ptr }
%union.anon.0 = type { i16 }
%union.anon.1 = type { %struct.FuncDecl }
%struct.FuncDecl = type { i32, [4 x i8], %struct.Signature_, i32, i32, %union.anon.8 }
%struct.Signature_ = type <{ %struct.CalleeAttributes, i16, i8, i32, i32, [4 x i8], ptr }>
%struct.CalleeAttributes = type { i8 }
%union.anon.8 = type { %struct.anon.9 }
%struct.anon.9 = type { i16, %union.anon.10 }
%union.anon.10 = type { ptr }
%struct.TypeArray = type { ptr, i32 }
%struct.anon.2 = type { ptr, ptr, %union.anon.3 }
%union.anon.3 = type { %struct.BitStructDecl }
%struct.BitStructDecl = type { ptr, ptr, i8 }
%struct.StructDecl = type { i32, ptr, i32, i16 }

@type_usz = external global ptr, align 8
@.str.9 = private unnamed_addr constant [36 x i8] c"FATAL ERROR %s -> in %s @ in %s:%d \00", align 1
@.str.10 = private unnamed_addr constant [22 x i8] c"Should be unreachable\00", align 1
@.str.11 = private unnamed_addr constant [118 x i8] c"generated/home/dtcxzyw/WorkSpace/Projects/compilers/llvm-opt-benchmark/bench/c3c/c3c/src/compiler/llvm_codegen_expr.c\00", align 1
@.str.52 = private unnamed_addr constant [13 x i8] c"TODO reached\00", align 1
@__func__.llvm_expand_type_to_args = private unnamed_addr constant [25 x i8] c"llvm_expand_type_to_args\00", align 1
@.str.111 = private unnamed_addr constant [13 x i8] c"loadexpanded\00", align 1

; Function Attrs: nounwind uwtable
define dso_local ptr @llvm_emit_array_gep_raw(ptr noundef %0, ptr noundef %1, ptr noundef %2, i32 noundef %3, i32 noundef %4, ptr noundef %5) #0 {
  %7 = alloca ptr, align 8
  %8 = alloca i32, align 4
  %9 = alloca ptr, align 8
  %10 = alloca ptr, align 8
  %11 = alloca i64, align 8
  %12 = alloca ptr, align 8
  %13 = alloca ptr, align 8
  %14 = alloca ptr, align 8
  %15 = alloca i32, align 4
  %16 = alloca i32, align 4
  %17 = alloca ptr, align 8
  %18 = alloca %struct.BEValue, align 8
  store ptr %0, ptr %12, align 8
  store ptr %1, ptr %13, align 8
  store ptr %2, ptr %14, align 8
  store i32 %3, ptr %15, align 4
  store i32 %4, ptr %16, align 4
  store ptr %5, ptr %17, align 8
  %19 = load ptr, ptr %12, align 8
  %20 = load ptr, ptr @type_usz, align 8
  %21 = load i32, ptr %15, align 4
  %22 = zext i32 %21 to i64
  store ptr %19, ptr %9, align 8
  store ptr %20, ptr %10, align 8
  store i64 %22, ptr %11, align 8
  %23 = load ptr, ptr %10, align 8
  %24 = call ptr @type_lowering(ptr noundef %23)
  store ptr %24, ptr %10, align 8
  %25 = load ptr, ptr %9, align 8
  %26 = load ptr, ptr %10, align 8
  %27 = call ptr @llvm_get_type(ptr noundef %25, ptr noundef %26) #8
  %28 = load i64, ptr %11, align 8
  %29 = load ptr, ptr %10, align 8
  store ptr %29, ptr %7, align 8
  %30 = load ptr, ptr %7, align 8
  %31 = load i32, ptr %30, align 8
  store i32 %31, ptr %8, align 4
  %32 = load i32, ptr %8, align 4
  %33 = icmp eq i32 %32, 31
  br i1 %33, label %34, label %39

34:                                               ; preds = %6
  %35 = load ptr, ptr %7, align 8
  %36 = getelementptr inbounds %struct.Type_, ptr %35, i32 0, i32 1
  %37 = load ptr, ptr %36, align 8
  %38 = load i32, ptr %37, align 8
  store i32 %38, ptr %8, align 4
  br label %39

39:                                               ; preds = %34, %6
  %40 = load i32, ptr %8, align 4
  %41 = icmp uge i32 %40, 3
  br i1 %41, label %42, label %45

42:                                               ; preds = %39
  %43 = load i32, ptr %8, align 4
  %44 = icmp ule i32 %43, 7
  br label %45

45:                                               ; preds = %42, %39
  %46 = phi i1 [ false, %39 ], [ %44, %42 ]
  %47 = zext i1 %46 to i32
  %48 = call ptr @LLVMConstInt(ptr noundef %27, i64 noundef %28, i32 noundef %47) #8
  %49 = load ptr, ptr @type_usz, align 8
  call void @llvm_value_set(ptr noundef %18, ptr noundef %48, ptr noundef %49)
  %50 = load ptr, ptr %12, align 8
  %51 = load ptr, ptr %13, align 8
  %52 = load ptr, ptr %14, align 8
  %53 = load i32, ptr %16, align 4
  %54 = load ptr, ptr %17, align 8
  %55 = call ptr @llvm_emit_array_gep_raw_index(ptr noundef %50, ptr noundef %51, ptr noundef %52, ptr noundef %18, i32 noundef %53, ptr noundef %54)
  ret ptr %55
}

; Function Attrs: nounwind uwtable
define internal void @llvm_expand_array_to_args(ptr noundef %0, ptr noundef %1, ptr noundef %2, ptr noundef %3, ptr noundef %4, i32 noundef %5) #0 {
  %7 = alloca ptr, align 8
  %8 = alloca ptr, align 8
  %9 = alloca ptr, align 8
  %10 = alloca ptr, align 8
  %11 = alloca ptr, align 8
  %12 = alloca i32, align 4
  %13 = alloca ptr, align 8
  %14 = alloca i64, align 8
  %15 = alloca i32, align 4
  %16 = alloca ptr, align 8
  store ptr %0, ptr %7, align 8
  store ptr %1, ptr %8, align 8
  store ptr %2, ptr %9, align 8
  store ptr %3, ptr %10, align 8
  store ptr %4, ptr %11, align 8
  store i32 %5, ptr %12, align 4
  %17 = load ptr, ptr %7, align 8
  %18 = load ptr, ptr %8, align 8
  %19 = call ptr @llvm_get_type(ptr noundef %17, ptr noundef %18)
  store ptr %19, ptr %13, align 8
  store i64 0, ptr %14, align 8
  br label %20

20:                                               ; preds = %45, %6
  %21 = load i64, ptr %14, align 8
  %22 = load ptr, ptr %8, align 8
  %23 = getelementptr inbounds %struct.Type_, ptr %22, i32 0, i32 7
  %24 = getelementptr inbounds %struct.TypeArray, ptr %23, i32 0, i32 1
  %25 = load i32, ptr %24, align 8
  %26 = zext i32 %25 to i64
  %27 = icmp ult i64 %21, %26
  br i1 %27, label %28, label %48

28:                                               ; preds = %20
  %29 = load ptr, ptr %7, align 8
  %30 = load ptr, ptr %9, align 8
  %31 = load ptr, ptr %13, align 8
  %32 = load i64, ptr %14, align 8
  %33 = trunc i64 %32 to i32
  %34 = load i32, ptr %12, align 4
  %35 = call ptr @llvm_emit_array_gep_raw(ptr noundef %29, ptr noundef %30, ptr noundef %31, i32 noundef %33, i32 noundef %34, ptr noundef %15)
  store ptr %35, ptr %16, align 8
  %36 = load ptr, ptr %7, align 8
  %37 = load ptr, ptr %8, align 8
  %38 = getelementptr inbounds %struct.Type_, ptr %37, i32 0, i32 7
  %39 = getelementptr inbounds %struct.TypeArray, ptr %38, i32 0, i32 0
  %40 = load ptr, ptr %39, align 8
  %41 = load ptr, ptr %16, align 8
  %42 = load ptr, ptr %10, align 8
  %43 = load ptr, ptr %11, align 8
  %44 = load i32, ptr %15, align 4
  call void @llvm_expand_type_to_args(ptr noundef %36, ptr noundef %40, ptr noundef %41, ptr noundef %42, ptr noundef %43, i32 noundef %44)
  br label %45

45:                                               ; preds = %28
  %46 = load i64, ptr %14, align 8
  %47 = add i64 %46, 1
  store i64 %47, ptr %14, align 8
  br label %20, !llvm.loop !61

48:                                               ; preds = %20
  ret void
}

; Function Attrs: nounwind uwtable
define internal void @llvm_expand_struct_to_args(ptr noundef %0, ptr noundef %1, ptr noundef %2, ptr noundef %3, ptr noundef %4, i32 noundef %5) #0 {
  %7 = alloca i32, align 4
  %8 = alloca ptr, align 8
  %9 = alloca ptr, align 8
  %10 = alloca ptr, align 8
  %11 = alloca ptr, align 8
  %12 = alloca ptr, align 8
  %13 = alloca ptr, align 8
  %14 = alloca ptr, align 8
  %15 = alloca i32, align 4
  %16 = alloca ptr, align 8
  %17 = alloca i32, align 4
  %18 = alloca i32, align 4
  %19 = alloca ptr, align 8
  %20 = alloca i32, align 4
  %21 = alloca ptr, align 8
  store ptr %0, ptr %10, align 8
  store ptr %1, ptr %11, align 8
  store ptr %2, ptr %12, align 8
  store ptr %3, ptr %13, align 8
  store ptr %4, ptr %14, align 8
  store i32 %5, ptr %15, align 4
  %22 = load ptr, ptr %11, align 8
  %23 = getelementptr inbounds %struct.Type_, ptr %22, i32 0, i32 7
  %24 = load ptr, ptr %23, align 8
  %25 = getelementptr inbounds %struct.Decl_, ptr %24, i32 0, i32 11
  %26 = getelementptr inbounds %struct.anon.2, ptr %25, i32 0, i32 2
  %27 = getelementptr inbounds %struct.StructDecl, ptr %26, i32 0, i32 1
  %28 = load ptr, ptr %27, align 8
  store ptr %28, ptr %16, align 8
  store i32 0, ptr %17, align 4
  %29 = load ptr, ptr %16, align 8
  store ptr %29, ptr %8, align 8
  %30 = load ptr, ptr %8, align 8
  %31 = icmp ne ptr %30, null
  br i1 %31, label %33, label %32

32:                                               ; preds = %6
  store i32 0, ptr %7, align 4
  br label %38

33:                                               ; preds = %6
  %34 = load ptr, ptr %8, align 8
  store ptr %34, ptr %9, align 8
  %35 = load ptr, ptr %9, align 8
  %36 = getelementptr inbounds %struct.VHeader_, ptr %35, i64 -1
  %37 = load i32, ptr %36, align 4
  store i32 %37, ptr %7, align 4
  br label %38

38:                                               ; preds = %33, %32
  %39 = load i32, ptr %7, align 4
  store i32 %39, ptr %18, align 4
  br label %40

40:                                               ; preds = %66, %38
  %41 = load i32, ptr %17, align 4
  %42 = load i32, ptr %18, align 4
  %43 = icmp ult i32 %41, %42
  br i1 %43, label %44, label %69

44:                                               ; preds = %40
  %45 = load ptr, ptr %16, align 8
  %46 = load i32, ptr %17, align 4
  %47 = zext i32 %46 to i64
  %48 = getelementptr inbounds ptr, ptr %45, i64 %47
  %49 = load ptr, ptr %48, align 8
  %50 = getelementptr inbounds %struct.Decl_, ptr %49, i32 0, i32 10
  %51 = load ptr, ptr %50, align 8
  store ptr %51, ptr %19, align 8
  %52 = load ptr, ptr %10, align 8
  %53 = load ptr, ptr %12, align 8
  %54 = load ptr, ptr %10, align 8
  %55 = load ptr, ptr %11, align 8
  %56 = call ptr @llvm_get_type(ptr noundef %54, ptr noundef %55)
  %57 = load i32, ptr %17, align 4
  %58 = load i32, ptr %15, align 4
  %59 = call ptr @llvm_emit_struct_gep_raw(ptr noundef %52, ptr noundef %53, ptr noundef %56, i32 noundef %57, i32 noundef %58, ptr noundef %20)
  store ptr %59, ptr %21, align 8
  %60 = load ptr, ptr %10, align 8
  %61 = load ptr, ptr %19, align 8
  %62 = load ptr, ptr %21, align 8
  %63 = load ptr, ptr %13, align 8
  %64 = load ptr, ptr %14, align 8
  %65 = load i32, ptr %20, align 4
  call void @llvm_expand_type_to_args(ptr noundef %60, ptr noundef %61, ptr noundef %62, ptr noundef %63, ptr noundef %64, i32 noundef %65)
  br label %66

66:                                               ; preds = %44
  %67 = load i32, ptr %17, align 4
  %68 = add i32 %67, 1
  store i32 %68, ptr %17, align 4
  br label %40, !llvm.loop !60

69:                                               ; preds = %40
  ret void
}

; Function Attrs: nounwind uwtable
define internal void @llvm_expand_type_to_args(ptr noundef %0, ptr noundef %1, ptr noundef %2, ptr noundef %3, ptr noundef %4, i32 noundef %5) #0 {
  %7 = alloca ptr, align 8
  %8 = alloca ptr, align 8
  %9 = alloca ptr, align 8
  %10 = alloca ptr, align 8
  %11 = alloca ptr, align 8
  %12 = alloca i32, align 4
  store ptr %0, ptr %7, align 8
  store ptr %1, ptr %8, align 8
  store ptr %2, ptr %9, align 8
  store ptr %3, ptr %10, align 8
  store ptr %4, ptr %11, align 8
  store i32 %5, ptr %12, align 4
  %13 = load ptr, ptr %8, align 8
  %14 = call ptr @type_lowering(ptr noundef %13)
  %15 = getelementptr inbounds %struct.Type_, ptr %14, i32 0, i32 0
  %16 = load i32, ptr %15, align 8
  switch i32 %16, label %51 [
    i32 42, label %17
    i32 36, label %17
    i32 38, label %17
    i32 39, label %17
    i32 0, label %17
    i32 43, label %17
    i32 41, label %17
    i32 24, label %17
    i32 31, label %17
    i32 22, label %17
    i32 32, label %17
    i32 21, label %17
    i32 30, label %17
    i32 29, label %17
    i32 40, label %17
    i32 20, label %17
    i32 1, label %17
    i32 25, label %17
    i32 18, label %17
    i32 28, label %17
    i32 35, label %17
    i32 2, label %20
    i32 3, label %20
    i32 4, label %20
    i32 5, label %20
    i32 6, label %20
    i32 7, label %20
    i32 8, label %20
    i32 9, label %20
    i32 10, label %20
    i32 11, label %20
    i32 12, label %20
    i32 14, label %20
    i32 13, label %20
    i32 15, label %20
    i32 16, label %20
    i32 17, label %20
    i32 23, label %20
    i32 26, label %34
    i32 33, label %41
    i32 27, label %48
    i32 34, label %48
    i32 37, label %48
    i32 19, label %48
  ]

17:                                               ; preds = %6, %6, %6, %6, %6, %6, %6, %6, %6, %6, %6, %6, %6, %6, %6, %6, %6, %6, %6, %6, %6
  br label %18

18:                                               ; preds = %17
  call void (ptr, ...) @error_exit(ptr noundef @.str.9, ptr noundef @.str.10, ptr noundef @__func__.llvm_expand_type_to_args, ptr noundef @.str.11, i32 noundef 4937) #7
  unreachable

19:                                               ; No predecessors!
  br label %51

20:                                               ; preds = %6, %6, %6, %6, %6, %6, %6, %6, %6, %6, %6, %6, %6, %6, %6, %6, %6
  %21 = load ptr, ptr %7, align 8
  %22 = load ptr, ptr %7, align 8
  %23 = load ptr, ptr %8, align 8
  %24 = call ptr @llvm_get_type(ptr noundef %22, ptr noundef %23)
  %25 = load ptr, ptr %9, align 8
  %26 = load i32, ptr %12, align 4
  %27 = call ptr @llvm_load(ptr noundef %21, ptr noundef %24, ptr noundef %25, i32 noundef %26, ptr noundef @.str.111)
  %28 = load ptr, ptr %10, align 8
  %29 = load ptr, ptr %11, align 8
  %30 = load i32, ptr %29, align 4
  %31 = add i32 %30, 1
  store i32 %31, ptr %29, align 4
  %32 = zext i32 %30 to i64
  %33 = getelementptr inbounds ptr, ptr %28, i64 %32
  store ptr %27, ptr %33, align 8
  br label %51

34:                                               ; preds = %6
  %35 = load ptr, ptr %7, align 8
  %36 = load ptr, ptr %8, align 8
  %37 = load ptr, ptr %9, align 8
  %38 = load ptr, ptr %10, align 8
  %39 = load ptr, ptr %11, align 8
  %40 = load i32, ptr %12, align 4
  call void @llvm_expand_struct_to_args(ptr noundef %35, ptr noundef %36, ptr noundef %37, ptr noundef %38, ptr noundef %39, i32 noundef %40)
  br label %51

41:                                               ; preds = %6
  %42 = load ptr, ptr %7, align 8
  %43 = load ptr, ptr %8, align 8
  %44 = load ptr, ptr %9, align 8
  %45 = load ptr, ptr %10, align 8
  %46 = load ptr, ptr %11, align 8
  %47 = load i32, ptr %12, align 4
  call void @llvm_expand_array_to_args(ptr noundef %42, ptr noundef %43, ptr noundef %44, ptr noundef %45, ptr noundef %46, i32 noundef %47)
  br label %51

48:                                               ; preds = %6, %6, %6, %6
  br label %49

49:                                               ; preds = %48
  call void (ptr, ...) @error_exit(ptr noundef @.str.9, ptr noundef @.str.52, ptr noundef @__func__.llvm_expand_type_to_args, ptr noundef @.str.11, i32 noundef 4959) #7
  unreachable

50:                                               ; No predecessors!
  br label %51

51:                                               ; preds = %50, %41, %34, %20, %19, %6
  ret void
}