; Function Attrs: nounwind uwtable
define internal fastcc void @llvm_expand_type_to_args(ptr noundef %0, ptr noundef %1, ptr noundef %2, ptr noundef %3, ptr noundef %4, i32 noundef %5) unnamed_addr #0 {
  %7 = alloca %struct.BEValue, align 8
  %8 = alloca i32, align 4
  %9 = alloca i32, align 4
  %10 = tail call fastcc ptr @type_lowering(ptr noundef %1)
  %11 = load i32, ptr %10, align 8
  switch i32 %11, label %64 [
    i32 42, label %12
    i32 36, label %12
    i32 38, label %12
    i32 39, label %12
    i32 0, label %12
    i32 43, label %12
    i32 41, label %12
    i32 24, label %12
    i32 31, label %12
    i32 22, label %12
    i32 32, label %12
    i32 21, label %12
    i32 30, label %12
    i32 29, label %12
    i32 40, label %12
    i32 20, label %12
    i32 1, label %12
    i32 25, label %12
    i32 18, label %12
    i32 28, label %12
    i32 35, label %12
    i32 2, label %13
    i32 3, label %13
    i32 4, label %13
    i32 5, label %13
    i32 6, label %13
    i32 7, label %13
    i32 8, label %13
    i32 9, label %13
    i32 10, label %13
    i32 11, label %13
    i32 12, label %13
    i32 14, label %13
    i32 13, label %13
    i32 15, label %13
    i32 16, label %13
    i32 17, label %13
    i32 23, label %13
    i32 26, label %20
    i32 33, label %36
    i32 27, label %63
    i32 34, label %63
    i32 37, label %63
    i32 19, label %63
  ]

12:                                               ; preds = %6, %6, %6, %6, %6, %6, %6, %6, %6, %6, %6, %6, %6, %6, %6, %6, %6, %6, %6, %6, %6
  tail call void (ptr, ...) @error_exit(ptr noundef nonnull @.str.9, ptr noundef nonnull @.str.10, ptr noundef nonnull @__func__.llvm_expand_type_to_args, ptr noundef nonnull @.str.11, i32 noundef 4937) #11
  unreachable

13:                                               ; preds = %6, %6, %6, %6, %6, %6, %6, %6, %6, %6, %6, %6, %6, %6, %6, %6, %6
  %14 = tail call ptr @llvm_get_type(ptr noundef %0, ptr noundef %1) #10
  %15 = tail call ptr @llvm_load(ptr noundef %0, ptr noundef %14, ptr noundef %2, i32 noundef %5, ptr noundef nonnull @.str.111) #10
  %16 = load i32, ptr %4, align 4
  %17 = add i32 %16, 1
  store i32 %17, ptr %4, align 4
  %18 = zext i32 %16 to i64
  %19 = getelementptr inbounds ptr, ptr %3, i64 %18
  store ptr %15, ptr %19, align 8
  br label %64

20:                                               ; preds = %6
  call void @llvm.lifetime.start.p0(i64 4, ptr nonnull %9)
  %21 = getelementptr inbounds i8, ptr %1, i64 56
  %22 = load ptr, ptr %21, align 8
  %23 = getelementptr inbounds i8, ptr %22, i64 104
  %24 = load ptr, ptr %23, align 8
  %.not.i = icmp eq ptr %24, null
  br i1 %.not.i, label %llvm_expand_struct_to_args.exit, label %25

25:                                               ; preds = %20
  %26 = getelementptr inbounds i8, ptr %24, i64 -8
  %27 = load i32, ptr %26, align 4
  %.not24 = icmp eq i32 %27, 0
  br i1 %.not24, label %llvm_expand_struct_to_args.exit, label %.lr.ph23.preheader

.lr.ph23.preheader:                               ; preds = %25
  %wide.trip.count = zext i32 %27 to i64
  br label %.lr.ph23

.lr.ph23:                                         ; preds = %.lr.ph23.preheader, %.lr.ph23
  %indvars.iv = phi i64 [ 0, %.lr.ph23.preheader ], [ %indvars.iv.next, %.lr.ph23 ]
  %28 = getelementptr inbounds ptr, ptr %24, i64 %indvars.iv
  %29 = load ptr, ptr %28, align 8
  %30 = getelementptr inbounds i8, ptr %29, i64 72
  %31 = load ptr, ptr %30, align 8
  %32 = tail call ptr @llvm_get_type(ptr noundef %0, ptr noundef %1) #10
  %33 = trunc nuw i64 %indvars.iv to i32
  %34 = call ptr @llvm_emit_struct_gep_raw(ptr noundef %0, ptr noundef %2, ptr noundef %32, i32 noundef %33, i32 noundef %5, ptr noundef nonnull %9)
  %35 = load i32, ptr %9, align 4
  tail call fastcc void @llvm_expand_type_to_args(ptr noundef %0, ptr noundef %31, ptr noundef %34, ptr noundef %3, ptr noundef %4, i32 noundef %35)
  %indvars.iv.next = add nuw nsw i64 %indvars.iv, 1
  %exitcond.not = icmp eq i64 %indvars.iv.next, %wide.trip.count
  br i1 %exitcond.not, label %llvm_expand_struct_to_args.exit, label %.lr.ph23, !llvm.loop !48

llvm_expand_struct_to_args.exit:                  ; preds = %.lr.ph23, %20, %25
  call void @llvm.lifetime.end.p0(i64 4, ptr nonnull %9)
  br label %64

36:                                               ; preds = %6
  call void @llvm.lifetime.start.p0(i64 4, ptr nonnull %8)
  %37 = tail call ptr @llvm_get_type(ptr noundef %0, ptr noundef %1) #10
  %38 = getelementptr inbounds i8, ptr %1, i64 64
  %39 = load i32, ptr %38, align 8
  %.not = icmp eq i32 %39, 0
  br i1 %.not, label %llvm_expand_array_to_args.exit, label %.lr.ph

.lr.ph:                                           ; preds = %36
  %40 = getelementptr inbounds i8, ptr %1, i64 56
  br label %41

41:                                               ; preds = %.lr.ph, %llvm_emit_array_gep_raw.exit
  %.0.i1921 = phi i64 [ 0, %.lr.ph ], [ %59, %llvm_emit_array_gep_raw.exit ]
  call void @llvm.lifetime.start.p0(i64 32, ptr nonnull %7)
  %42 = load ptr, ptr @type_usz, align 8
  %43 = call fastcc ptr @type_lowering(ptr noundef %42)
  %44 = call ptr @llvm_get_type(ptr noundef %0, ptr noundef %43) #10
  %45 = load i32, ptr %43, align 8
  %46 = icmp eq i32 %45, 31
  br i1 %46, label %47, label %llvm_emit_array_gep_raw.exit

47:                                               ; preds = %41
  %48 = getelementptr inbounds i8, ptr %43, i64 8
  %49 = load ptr, ptr %48, align 8
  %50 = load i32, ptr %49, align 8
  br label %llvm_emit_array_gep_raw.exit

llvm_emit_array_gep_raw.exit:                     ; preds = %41, %47
  %.0.i20 = phi i32 [ %50, %47 ], [ %45, %41 ]
  %51 = add i32 %.0.i20, -3
  %52 = icmp ult i32 %51, 5
  %53 = zext i1 %52 to i32
  %54 = call ptr @LLVMConstInt(ptr noundef %44, i64 noundef %.0.i1921, i32 noundef %53) #10
  %55 = load ptr, ptr @type_usz, align 8
  call void @llvm_value_set(ptr noundef nonnull %7, ptr noundef %54, ptr noundef %55) #10
  %56 = call ptr @llvm_emit_array_gep_raw_index(ptr noundef %0, ptr noundef %2, ptr noundef %37, ptr noundef nonnull %7, i32 noundef %5, ptr noundef nonnull %8)
  call void @llvm.lifetime.end.p0(i64 32, ptr nonnull %7)
  %57 = load ptr, ptr %40, align 8
  %58 = load i32, ptr %8, align 4
  call fastcc void @llvm_expand_type_to_args(ptr noundef %0, ptr noundef %57, ptr noundef %56, ptr noundef %3, ptr noundef %4, i32 noundef %58)
  %59 = add nuw nsw i64 %.0.i1921, 1
  %60 = load i32, ptr %38, align 8
  %61 = zext i32 %60 to i64
  %62 = icmp ult i64 %59, %61
  br i1 %62, label %41, label %llvm_expand_array_to_args.exit, !llvm.loop !49

llvm_expand_array_to_args.exit:                   ; preds = %llvm_emit_array_gep_raw.exit, %36
  call void @llvm.lifetime.end.p0(i64 4, ptr nonnull %8)
  br label %64

63:                                               ; preds = %6, %6, %6, %6
  tail call void (ptr, ...) @error_exit(ptr noundef nonnull @.str.9, ptr noundef nonnull @.str.52, ptr noundef nonnull @__func__.llvm_expand_type_to_args, ptr noundef nonnull @.str.11, i32 noundef 4959) #11
  unreachable

64:                                               ; preds = %llvm_expand_array_to_args.exit, %llvm_expand_struct_to_args.exit, %13, %6
  ret void
}